target datalayout = "e-m:e-p270:32:32-p271:32:32-p272:64:64-i64:64-i128:128-f80:128-n8:16:32:64-S128"
target triple = "x86_64-pc-linux-gnu"

%struct.ILookInStream = type { ptr, ptr, ptr, ptr }
%struct.CLookToRead = type { %struct.ILookInStream, ptr, i64, i64, [16384 x i8] }
%struct.ISeekInStream = type { ptr, ptr, i64 }

; Function Attrs: nounwind uwtable
define internal i32 @LookToRead_Seek(ptr noundef %0, ptr noundef %1, i32 noundef %2) #0 {
  %4 = alloca ptr, align 8
  %5 = alloca ptr, align 8
  %6 = alloca i32, align 4
  %7 = alloca ptr, align 8
  store ptr %0, ptr %4, align 8, !tbaa !3
  store ptr %1, ptr %5, align 8, !tbaa !34
  store i32 %2, ptr %6, align 4, !tbaa !9
  call void @llvm.lifetime.start.p0(i64 8, ptr %7) #3
  %8 = load ptr, ptr %4, align 8, !tbaa !3
  store ptr %8, ptr %7, align 8, !tbaa !3
  %9 = load ptr, ptr %7, align 8, !tbaa !3
  %10 = getelementptr inbounds nuw %struct.CLookToRead, ptr %9, i32 0, i32 3
  store i64 0, ptr %10, align 8, !tbaa !29
  %11 = load ptr, ptr %7, align 8, !tbaa !3
  %12 = getelementptr inbounds nuw %struct.CLookToRead, ptr %11, i32 0, i32 2
  store i64 0, ptr %12, align 8, !tbaa !30
  %13 = load ptr, ptr %7, align 8, !tbaa !3
  %14 = getelementptr inbounds nuw %struct.CLookToRead, ptr %13, i32 0, i32 1
  %15 = load ptr, ptr %14, align 8, !tbaa !31
  %16 = getelementptr inbounds nuw %struct.ISeekInStream, ptr %15, i32 0, i32 1
  %17 = load ptr, ptr %16, align 8, !tbaa !36
  %18 = load ptr, ptr %7, align 8, !tbaa !3
  %19 = getelementptr inbounds nuw %struct.CLookToRead, ptr %18, i32 0, i32 1
  %20 = load ptr, ptr %19, align 8, !tbaa !31
  %21 = load ptr, ptr %5, align 8, !tbaa !34
  %22 = load i32, ptr %6, align 4, !tbaa !9
  %23 = call i32 %17(ptr noundef %20, ptr noundef %21, i32 noundef %22)
  call void @llvm.lifetime.end.p0(i64 8, ptr %7) #3
  ret i32 %23
}