; Function Attrs: nounwind uwtable
define internal i32 @LookToRead_Seek(ptr noundef captures(none) initializes((40, 56)) %0, ptr noundef %1, i32 noundef %2) #0 {
  %4 = getelementptr inbounds nuw i8, ptr %0, i64 40
  %5 = getelementptr inbounds nuw i8, ptr %0, i64 32
  tail call void @llvm.memset.p0.i64(ptr noundef nonnull align 8 dereferenceable(16) %4, i8 0, i64 16, i1 false)
  %6 = load ptr, ptr %5, align 8, !tbaa !25
  %7 = getelementptr inbounds nuw i8, ptr %6, i64 8
  %8 = load ptr, ptr %7, align 8, !tbaa !28
  %9 = tail call i32 %8(ptr noundef %6, ptr noundef %1, i32 noundef %2) #7
  ret i32 %9
}